target datalayout = "e-m:e-p270:32:32-p271:32:32-p272:64:64-i64:64-i128:128-f80:128-n8:16:32:64-S128"
target triple = "x86_64-pc-linux-gnu"

%class.StubCodeMark = type { ptr, ptr }
%class.StubCodeGenerator = type { ptr, i8, ptr }
%class.CodeSection = type { ptr, ptr, ptr, ptr, ptr, ptr, ptr, ptr, i8, i8, i32, i8, ptr }
%class.AbstractAssembler = type { ptr, ptr, ptr }

@.str = private unnamed_addr constant [13 x i8] c"StubRoutines\00", align 1
@CodeEntryAlignment = external global i64, align 8

; Function Attrs: mustprogress nounwind uwtable
define linkonce_odr hidden noundef ptr @_ZNK11CodeSection3endEv(ptr noundef nonnull align 8 dereferenceable(88) %0) #1 comdat align 2 {
  %2 = alloca ptr, align 8
  store ptr %0, ptr %2, align 8
  %3 = load ptr, ptr %2, align 8
  %4 = getelementptr inbounds %class.CodeSection, ptr %3, i32 0, i32 2
  %5 = load ptr, ptr %4, align 8
  ret ptr %5
}

; Function Attrs: mustprogress nounwind uwtable
define linkonce_odr hidden noundef ptr @_ZNK17AbstractAssembler12code_sectionEv(ptr noundef nonnull align 8 dereferenceable(24) %0) #1 comdat align 2 {
  %2 = alloca ptr, align 8
  store ptr %0, ptr %2, align 8
  %3 = load ptr, ptr %2, align 8
  %4 = getelementptr inbounds %class.AbstractAssembler, ptr %3, i32 0, i32 1
  %5 = load ptr, ptr %4, align 8
  ret ptr %5
}

; Function Attrs: mustprogress nounwind uwtable
define linkonce_odr hidden noundef ptr @_ZNK17AbstractAssembler2pcEv(ptr noundef nonnull align 8 dereferenceable(24) %0) #1 comdat align 2 {
  %2 = alloca ptr, align 8
  store ptr %0, ptr %2, align 8
  %3 = load ptr, ptr %2, align 8
  %4 = call noundef ptr @_ZNK17AbstractAssembler12code_sectionEv(ptr noundef nonnull align 8 dereferenceable(24) %3)
  %5 = call noundef ptr @_ZNK11CodeSection3endEv(ptr noundef nonnull align 8 dereferenceable(88) %4)
  ret ptr %5
}

; Function Attrs: mustprogress nounwind uwtable
define hidden noundef ptr @_ZN13StubGenerator23generate_vector_fp_maskEPKcl(ptr noundef nonnull align 8 dereferenceable(24) %0, ptr noundef %1, i64 noundef %2) #1 align 2 {
  %4 = alloca ptr, align 8
  %5 = alloca ptr, align 8
  %6 = alloca i64, align 8
  %7 = alloca %class.StubCodeMark, align 8
  %8 = alloca ptr, align 8
  store ptr %0, ptr %4, align 8
  store ptr %1, ptr %5, align 8
  store i64 %2, ptr %6, align 8
  %9 = load ptr, ptr %4, align 8
  %10 = getelementptr inbounds %class.StubCodeGenerator, ptr %9, i32 0, i32 2
  %11 = load ptr, ptr %10, align 8
  %12 = load i64, ptr @CodeEntryAlignment, align 8
  %13 = trunc i64 %12 to i32
  call void @_ZN14MacroAssembler5alignEj(ptr noundef nonnull align 8 dereferenceable(40) %11, i32 noundef %13)
  %14 = load ptr, ptr %5, align 8
  call void @_ZN12StubCodeMarkC1EP17StubCodeGeneratorPKcS3_(ptr noundef nonnull align 8 dereferenceable(16) %7, ptr noundef %9, ptr noundef @.str, ptr noundef %14)
  %15 = getelementptr inbounds %class.StubCodeGenerator, ptr %9, i32 0, i32 2
  %16 = load ptr, ptr %15, align 8
  %17 = call noundef ptr @_ZNK17AbstractAssembler2pcEv(ptr noundef nonnull align 8 dereferenceable(24) %16)
  store ptr %17, ptr %8, align 8
  %18 = getelementptr inbounds %class.StubCodeGenerator, ptr %9, i32 0, i32 2
  %19 = load ptr, ptr %18, align 8
  %20 = load i64, ptr %6, align 8
  call void @_ZN9Assembler11emit_data64ElN9relocInfo9relocTypeEi(ptr noundef nonnull align 8 dereferenceable(40) %19, i64 noundef %20, i32 noundef 0, i32 noundef 0)
  %21 = getelementptr inbounds %class.StubCodeGenerator, ptr %9, i32 0, i32 2
  %22 = load ptr, ptr %21, align 8
  %23 = load i64, ptr %6, align 8
  call void @_ZN9Assembler11emit_data64ElN9relocInfo9relocTypeEi(ptr noundef nonnull align 8 dereferenceable(40) %22, i64 noundef %23, i32 noundef 0, i32 noundef 0)
  %24 = getelementptr inbounds %class.StubCodeGenerator, ptr %9, i32 0, i32 2
  %25 = load ptr, ptr %24, align 8
  %26 = load i64, ptr %6, align 8
  call void @_ZN9Assembler11emit_data64ElN9relocInfo9relocTypeEi(ptr noundef nonnull align 8 dereferenceable(40) %25, i64 noundef %26, i32 noundef 0, i32 noundef 0)
  %27 = getelementptr inbounds %class.StubCodeGenerator, ptr %9, i32 0, i32 2
  %28 = load ptr, ptr %27, align 8
  %29 = load i64, ptr %6, align 8
  call void @_ZN9Assembler11emit_data64ElN9relocInfo9relocTypeEi(ptr noundef nonnull align 8 dereferenceable(40) %28, i64 noundef %29, i32 noundef 0, i32 noundef 0)
  %30 = getelementptr inbounds %class.StubCodeGenerator, ptr %9, i32 0, i32 2
  %31 = load ptr, ptr %30, align 8
  %32 = load i64, ptr %6, align 8
  call void @_ZN9Assembler11emit_data64ElN9relocInfo9relocTypeEi(ptr noundef nonnull align 8 dereferenceable(40) %31, i64 noundef %32, i32 noundef 0, i32 noundef 0)
  %33 = getelementptr inbounds %class.StubCodeGenerator, ptr %9, i32 0, i32 2
  %34 = load ptr, ptr %33, align 8
  %35 = load i64, ptr %6, align 8
  call void @_ZN9Assembler11emit_data64ElN9relocInfo9relocTypeEi(ptr noundef nonnull align 8 dereferenceable(40) %34, i64 noundef %35, i32 noundef 0, i32 noundef 0)
  %36 = getelementptr inbounds %class.StubCodeGenerator, ptr %9, i32 0, i32 2
  %37 = load ptr, ptr %36, align 8
  %38 = load i64, ptr %6, align 8
  call void @_ZN9Assembler11emit_data64ElN9relocInfo9relocTypeEi(ptr noundef nonnull align 8 dereferenceable(40) %37, i64 noundef %38, i32 noundef 0, i32 noundef 0)
  %39 = getelementptr inbounds %class.StubCodeGenerator, ptr %9, i32 0, i32 2
  %40 = load ptr, ptr %39, align 8
  %41 = load i64, ptr %6, align 8
  call void @_ZN9Assembler11emit_data64ElN9relocInfo9relocTypeEi(ptr noundef nonnull align 8 dereferenceable(40) %40, i64 noundef %41, i32 noundef 0, i32 noundef 0)
  %42 = load ptr, ptr %8, align 8
  call void @_ZN12StubCodeMarkD1Ev(ptr noundef nonnull align 8 dereferenceable(16) %7) #7
  ret ptr %42
}